target datalayout = "e-m:e-p270:32:32-p271:32:32-p272:64:64-i64:64-i128:128-f80:128-n8:16:32:64-S128"
target triple = "x86_64-pc-linux-gnu"

%struct.CType = type { i32, i32, i16, i16, %struct.GCRef }
%struct.GCRef = type { i64 }
%struct.GCcdata = type { %struct.GCRef, i8, i8, i16 }

; Function Attrs: nounwind uwtable
define hidden i32 @lj_cconv_multi_init(ptr noundef %0, ptr noundef %1, ptr noundef %2) #0 {
  %4 = alloca i32, align 4
  %5 = alloca ptr, align 8
  %6 = alloca ptr, align 8
  %7 = alloca ptr, align 8
  store ptr %0, ptr %5, align 8, !tbaa !4
  store ptr %1, ptr %6, align 8, !tbaa !9
  store ptr %2, ptr %7, align 8, !tbaa !43
  %8 = load ptr, ptr %6, align 8, !tbaa !9
  %9 = getelementptr inbounds nuw %struct.CType, ptr %8, i32 0, i32 0
  %10 = load i32, ptr %9, align 8, !tbaa !13
  %11 = and i32 %10, -67108864
  %12 = icmp eq i32 %11, 805306368
  br i1 %12, label %20, label %13

13:                                               ; preds = %3
  %14 = load ptr, ptr %6, align 8, !tbaa !9
  %15 = getelementptr inbounds nuw %struct.CType, ptr %14, i32 0, i32 0
  %16 = load i32, ptr %15, align 8, !tbaa !13
  %17 = lshr i32 %16, 28
  %18 = icmp eq i32 %17, 1
  br i1 %18, label %20, label %19

19:                                               ; preds = %13
  store i32 0, ptr %4, align 4
  br label %60

20:                                               ; preds = %13, %3
  %21 = load ptr, ptr %7, align 8, !tbaa !43
  %22 = load i64, ptr %21, align 8, !tbaa !23
  %23 = ashr i64 %22, 47
  %24 = trunc i64 %23 to i32
  %25 = icmp eq i32 %24, -12
  br i1 %25, label %38, label %26

26:                                               ; preds = %20
  %27 = load ptr, ptr %7, align 8, !tbaa !43
  %28 = load i64, ptr %27, align 8, !tbaa !23
  %29 = ashr i64 %28, 47
  %30 = trunc i64 %29 to i32
  %31 = icmp eq i32 %30, -5
  br i1 %31, label %32, label %39

32:                                               ; preds = %26
  %33 = load ptr, ptr %6, align 8, !tbaa !9
  %34 = getelementptr inbounds nuw %struct.CType, ptr %33, i32 0, i32 0
  %35 = load i32, ptr %34, align 8, !tbaa !13
  %36 = lshr i32 %35, 28
  %37 = icmp eq i32 %36, 1
  br i1 %37, label %39, label %38

38:                                               ; preds = %32, %20
  store i32 0, ptr %4, align 4
  br label %60

39:                                               ; preds = %32, %26
  %40 = load ptr, ptr %7, align 8, !tbaa !43
  %41 = load i64, ptr %40, align 8, !tbaa !23
  %42 = ashr i64 %41, 47
  %43 = trunc i64 %42 to i32
  %44 = icmp eq i32 %43, -11
  br i1 %44, label %45, label %59

45:                                               ; preds = %39
  %46 = load ptr, ptr %5, align 8, !tbaa !4
  %47 = load ptr, ptr %7, align 8, !tbaa !43
  %48 = getelementptr inbounds nuw %struct.GCRef, ptr %47, i32 0, i32 0
  %49 = load i64, ptr %48, align 8, !tbaa !23
  %50 = and i64 %49, 140737488355327
  %51 = inttoptr i64 %50 to ptr
  %52 = getelementptr inbounds nuw %struct.GCcdata, ptr %51, i32 0, i32 3
  %53 = load i16, ptr %52, align 2, !tbaa !23
  %54 = zext i16 %53 to i32
  %55 = call ptr @lj_ctype_rawref(ptr noundef %46, i32 noundef %54)
  %56 = load ptr, ptr %6, align 8, !tbaa !9
  %57 = icmp eq ptr %55, %56
  br i1 %57, label %58, label %59

58:                                               ; preds = %45
  store i32 0, ptr %4, align 4
  br label %60

59:                                               ; preds = %45, %39
  store i32 1, ptr %4, align 4
  br label %60

60:                                               ; preds = %59, %58, %38, %19
  %61 = load i32, ptr %4, align 4
  ret i32 %61
}