; Function Attrs: nounwind uwtable
define hidden range(i32 0, 2) i32 @lj_cconv_multi_init(ptr noundef %0, ptr noundef readonly captures(address) %1, ptr noundef readonly captures(none) %2) local_unnamed_addr #2 {
  %4 = load i32, ptr %1, align 8, !tbaa !17
  %5 = and i32 %4, -67108864
  %6 = icmp eq i32 %5, 805306368
  %.mask = and i32 %4, -268435456
  %7 = icmp eq i32 %.mask, 268435456
  %or.cond = or i1 %6, %7
  br i1 %or.cond, label %8, label %23

8:                                                ; preds = %3
  %9 = load i64, ptr %2, align 8, !tbaa !23
  %10 = ashr i64 %9, 47
  switch i64 %10, label %12 [
    i64 -12, label %23
    i64 -5, label %11
  ]

11:                                               ; preds = %8
  br i1 %7, label %12, label %23

12:                                               ; preds = %8, %11
  %.mask11 = and i64 %9, -140737488355328
  %13 = icmp eq i64 %.mask11, -1548112371908608
  br i1 %13, label %14, label %22

14:                                               ; preds = %12
  %15 = and i64 %9, 140737488355327
  %16 = inttoptr i64 %15 to ptr
  %17 = getelementptr inbounds nuw i8, ptr %16, i64 10
  %18 = load i16, ptr %17, align 2, !tbaa !23
  %19 = zext i16 %18 to i32
  %20 = tail call ptr @lj_ctype_rawref(ptr noundef %0, i32 noundef %19) #9
  %21 = icmp eq ptr %20, %1
  br i1 %21, label %23, label %22

22:                                               ; preds = %14, %12
  br label %23

23:                                               ; preds = %14, %11, %8, %3, %22
  %.0 = phi i32 [ 1, %22 ], [ 0, %3 ], [ 0, %8 ], [ 0, %11 ], [ 0, %14 ]
  ret i32 %.0
}